target datalayout = "e-m:e-p270:32:32-p271:32:32-p272:64:64-i64:64-i128:128-f80:128-n8:16:32:64-S128"
target triple = "x86_64-pc-linux-gnu"

%class.expr = type { %class.ast }
%class.ast = type { i32, i32, i32, i32 }
%class.symbol = type { ptr }
%class.app = type { %class.expr, ptr, i32, %struct.app_flags, [0 x ptr] }
%struct.app_flags = type <{ i16, i8, i8 }>
%class.decl = type { %class.ast, %class.symbol, ptr }
%class.decl_info = type <{ i32, i32, %class.vector.35, i8, [7 x i8] }>
%class.vector.35 = type { ptr }

; Function Attrs: mustprogress nounwind uwtable
define linkonce_odr hidden noundef zeroext i1 @_ZNK9decl_info10is_decl_ofEii(ptr noundef nonnull align 8 dereferenceable(17) %0, i32 noundef %1, i32 noundef %2) #6 comdat align 2 {
  %4 = alloca ptr, align 8
  %5 = alloca i32, align 4
  %6 = alloca i32, align 4
  store ptr %0, ptr %4, align 8, !tbaa !195
  store i32 %1, ptr %5, align 4, !tbaa !10
  store i32 %2, ptr %6, align 4, !tbaa !10
  %7 = load ptr, ptr %4, align 8
  %8 = getelementptr inbounds nuw %class.decl_info, ptr %7, i32 0, i32 0
  %9 = load i32, ptr %8, align 8, !tbaa !196
  %10 = load i32, ptr %5, align 4, !tbaa !10
  %11 = icmp eq i32 %9, %10
  br i1 %11, label %12, label %17

12:                                               ; preds = %3
  %13 = load i32, ptr %6, align 4, !tbaa !10
  %14 = getelementptr inbounds nuw %class.decl_info, ptr %7, i32 0, i32 1
  %15 = load i32, ptr %14, align 4, !tbaa !200
  %16 = icmp eq i32 %13, %15
  br label %17

17:                                               ; preds = %12, %3
  %18 = phi i1 [ false, %3 ], [ %16, %12 ]
  ret i1 %18
}

; Function Attrs: mustprogress uwtable
define linkonce_odr hidden noundef zeroext i1 @_ZNK4decl10is_decl_ofEii(ptr noundef nonnull align 8 dereferenceable(32) %0, i32 noundef %1, i32 noundef %2) #4 comdat align 2 {
  %4 = alloca ptr, align 8
  %5 = alloca i32, align 4
  %6 = alloca i32, align 4
  store ptr %0, ptr %4, align 8, !tbaa !190
  store i32 %1, ptr %5, align 4, !tbaa !10
  store i32 %2, ptr %6, align 4, !tbaa !10
  %7 = load ptr, ptr %4, align 8
  %8 = getelementptr inbounds nuw %class.decl, ptr %7, i32 0, i32 2
  %9 = load ptr, ptr %8, align 8, !tbaa !192
  %10 = icmp ne ptr %9, null
  br i1 %10, label %11, label %17

11:                                               ; preds = %3
  %12 = getelementptr inbounds nuw %class.decl, ptr %7, i32 0, i32 2
  %13 = load ptr, ptr %12, align 8, !tbaa !192
  %14 = load i32, ptr %5, align 4, !tbaa !10
  %15 = load i32, ptr %6, align 4, !tbaa !10
  %16 = call noundef zeroext i1 @_ZNK9decl_info10is_decl_ofEii(ptr noundef nonnull align 8 dereferenceable(17) %13, i32 noundef %14, i32 noundef %15)
  br label %17

17:                                               ; preds = %11, %3
  %18 = phi i1 [ false, %3 ], [ %16, %11 ]
  ret i1 %18
}

; Function Attrs: mustprogress uwtable
define linkonce_odr hidden noundef zeroext i1 @_ZNK3app9is_app_ofEii(ptr noundef nonnull align 8 dereferenceable(32) %0, i32 noundef %1, i32 noundef %2) #4 comdat align 2 {
  %4 = alloca ptr, align 8
  %5 = alloca i32, align 4
  %6 = alloca i32, align 4
  store ptr %0, ptr %4, align 8, !tbaa !17
  store i32 %1, ptr %5, align 4, !tbaa !10
  store i32 %2, ptr %6, align 4, !tbaa !10
  %7 = load ptr, ptr %4, align 8
  %8 = getelementptr inbounds nuw %class.app, ptr %7, i32 0, i32 1
  %9 = load ptr, ptr %8, align 8, !tbaa !167
  %10 = load i32, ptr %5, align 4, !tbaa !10
  %11 = load i32, ptr %6, align 4, !tbaa !10
  %12 = call noundef zeroext i1 @_ZNK4decl10is_decl_ofEii(ptr noundef nonnull align 8 dereferenceable(32) %9, i32 noundef %10, i32 noundef %11)
  ret i1 %12
}

; Function Attrs: inlinehint mustprogress nounwind uwtable
define linkonce_odr hidden noundef ptr @_Z6to_appPK3ast(ptr noundef %0) #8 comdat {
  %2 = alloca ptr, align 8
  store ptr %0, ptr %2, align 8, !tbaa !41
  %3 = load ptr, ptr %2, align 8, !tbaa !41
  ret ptr %3
}

; Function Attrs: mustprogress nounwind uwtable
define linkonce_odr hidden noundef i32 @_ZNK3ast8get_kindEv(ptr noundef nonnull align 4 dereferenceable(16) %0) #6 comdat align 2 {
  %2 = alloca ptr, align 8
  store ptr %0, ptr %2, align 8, !tbaa !41
  %3 = load ptr, ptr %2, align 8
  %4 = getelementptr inbounds nuw %class.ast, ptr %3, i32 0, i32 1
  %5 = load i32, ptr %4, align 4
  %6 = and i32 %5, 65535
  ret i32 %6
}

; Function Attrs: inlinehint mustprogress uwtable
define linkonce_odr hidden noundef zeroext i1 @_Z9is_app_ofPK4exprii(ptr noundef %0, i32 noundef %1, i32 noundef %2) #7 comdat {
  %4 = alloca ptr, align 8
  %5 = alloca i32, align 4
  %6 = alloca i32, align 4
  store ptr %0, ptr %4, align 8, !tbaa !15
  store i32 %1, ptr %5, align 4, !tbaa !10
  store i32 %2, ptr %6, align 4, !tbaa !10
  %7 = load ptr, ptr %4, align 8, !tbaa !15
  %8 = call noundef i32 @_ZNK3ast8get_kindEv(ptr noundef nonnull align 4 dereferenceable(16) %7)
  %9 = icmp eq i32 %8, 0
  br i1 %9, label %10, label %16

10:                                               ; preds = %3
  %11 = load ptr, ptr %4, align 8, !tbaa !15
  %12 = call noundef ptr @_Z6to_appPK3ast(ptr noundef %11)
  %13 = load i32, ptr %5, align 4, !tbaa !10
  %14 = load i32, ptr %6, align 4, !tbaa !10
  %15 = call noundef zeroext i1 @_ZNK3app9is_app_ofEii(ptr noundef nonnull align 8 dereferenceable(32) %12, i32 noundef %13, i32 noundef %14)
  br label %16

16:                                               ; preds = %10, %3
  %17 = phi i1 [ false, %3 ], [ %15, %10 ]
  ret i1 %17
}

; Function Attrs: mustprogress nounwind uwtable
define linkonce_odr hidden noundef ptr @_ZNK3app3endEv(ptr noundef nonnull align 8 dereferenceable(32) %0) #6 comdat align 2 {
  %2 = alloca ptr, align 8
  store ptr %0, ptr %2, align 8, !tbaa !17
  %3 = load ptr, ptr %2, align 8
  %4 = getelementptr inbounds nuw %class.app, ptr %3, i32 0, i32 4
  %5 = getelementptr inbounds [0 x ptr], ptr %4, i64 0, i64 0
  %6 = getelementptr inbounds nuw %class.app, ptr %3, i32 0, i32 2
  %7 = load i32, ptr %6, align 8, !tbaa !61
  %8 = zext i32 %7 to i64
  %9 = getelementptr inbounds nuw ptr, ptr %5, i64 %8
  ret ptr %9
}

; Function Attrs: mustprogress nounwind uwtable
define linkonce_odr hidden noundef ptr @_ZNK3app5beginEv(ptr noundef nonnull align 8 dereferenceable(32) %0) #6 comdat align 2 {
  %2 = alloca ptr, align 8
  store ptr %0, ptr %2, align 8, !tbaa !17
  %3 = load ptr, ptr %2, align 8
  %4 = getelementptr inbounds nuw %class.app, ptr %3, i32 0, i32 4
  %5 = getelementptr inbounds [0 x ptr], ptr %4, i64 0, i64 0
  ret ptr %5
}

; Function Attrs: inlinehint mustprogress nounwind uwtable
define linkonce_odr hidden noundef ptr @_Z6to_appP3ast(ptr noundef %0) #8 comdat {
  %2 = alloca ptr, align 8
  store ptr %0, ptr %2, align 8, !tbaa !41
  %3 = load ptr, ptr %2, align 8, !tbaa !41
  ret ptr %3
}

; Function Attrs: mustprogress uwtable
define linkonce_odr hidden noundef zeroext i1 @_ZNK11ast_manager5is_orEPK4expr(ptr noundef nonnull align 8 dereferenceable(976) %0, ptr noundef %1) #4 comdat align 2 {
  %3 = alloca ptr, align 8
  %4 = alloca ptr, align 8
  store ptr %0, ptr %3, align 8, !tbaa !3
  store ptr %1, ptr %4, align 8, !tbaa !15
  %5 = load ptr, ptr %4, align 8, !tbaa !15
  %6 = call noundef zeroext i1 @_Z9is_app_ofPK4exprii(ptr noundef %5, i32 noundef 0, i32 noundef 6)
  ret i1 %6
}

; Function Attrs: mustprogress uwtable
define hidden noundef zeroext i1 @_Z9is_clauseR11ast_managerP4expr(ptr noundef nonnull align 8 dereferenceable(976) %0, ptr noundef %1) #4 {
  %3 = alloca i1, align 1
  %4 = alloca ptr, align 8
  %5 = alloca ptr, align 8
  %6 = alloca ptr, align 8
  %7 = alloca ptr, align 8
  %8 = alloca ptr, align 8
  %9 = alloca i32, align 4
  %10 = alloca ptr, align 8
  store ptr %0, ptr %4, align 8, !tbaa !3
  store ptr %1, ptr %5, align 8, !tbaa !15
  %11 = load ptr, ptr %4, align 8, !tbaa !3
  %12 = load ptr, ptr %5, align 8, !tbaa !15
  %13 = call noundef zeroext i1 @_Z10is_literalR11ast_managerP4expr(ptr noundef nonnull align 8 dereferenceable(976) %11, ptr noundef %12)
  br i1 %13, label %14, label %15

14:                                               ; preds = %2
  store i1 true, ptr %3, align 1
  br label %49

15:                                               ; preds = %2
  %16 = load ptr, ptr %4, align 8, !tbaa !3
  %17 = load ptr, ptr %5, align 8, !tbaa !15
  %18 = call noundef zeroext i1 @_ZNK11ast_manager5is_orEPK4expr(ptr noundef nonnull align 8 dereferenceable(976) %16, ptr noundef %17)
  br i1 %18, label %19, label %48

19:                                               ; preds = %15
  call void @llvm.lifetime.start.p0(i64 8, ptr %6) #3
  %20 = load ptr, ptr %5, align 8, !tbaa !15
  %21 = call noundef ptr @_Z6to_appP3ast(ptr noundef %20)
  store ptr %21, ptr %6, align 8, !tbaa !17
  call void @llvm.lifetime.start.p0(i64 8, ptr %7) #3
  %22 = load ptr, ptr %6, align 8, !tbaa !17
  %23 = call noundef ptr @_ZNK3app5beginEv(ptr noundef nonnull align 8 dereferenceable(32) %22)
  store ptr %23, ptr %7, align 8, !tbaa !12
  call void @llvm.lifetime.start.p0(i64 8, ptr %8) #3
  %24 = load ptr, ptr %6, align 8, !tbaa !17
  %25 = call noundef ptr @_ZNK3app3endEv(ptr noundef nonnull align 8 dereferenceable(32) %24)
  store ptr %25, ptr %8, align 8, !tbaa !12
  br label %26

26:                                               ; preds = %42, %19
  %27 = load ptr, ptr %7, align 8, !tbaa !12
  %28 = load ptr, ptr %8, align 8, !tbaa !12
  %29 = icmp ne ptr %27, %28
  br i1 %29, label %31, label %30

30:                                               ; preds = %26
  store i32 2, ptr %9, align 4
  br label %45

31:                                               ; preds = %26
  call void @llvm.lifetime.start.p0(i64 8, ptr %10) #3
  %32 = load ptr, ptr %7, align 8, !tbaa !12
  %33 = load ptr, ptr %32, align 8, !tbaa !15
  store ptr %33, ptr %10, align 8, !tbaa !15
  %34 = load ptr, ptr %4, align 8, !tbaa !3
  %35 = load ptr, ptr %10, align 8, !tbaa !15
  %36 = call noundef zeroext i1 @_Z10is_literalR11ast_managerP4expr(ptr noundef nonnull align 8 dereferenceable(976) %34, ptr noundef %35)
  br i1 %36, label %38, label %37

37:                                               ; preds = %31
  store i1 false, ptr %3, align 1
  store i32 1, ptr %9, align 4
  br label %39

38:                                               ; preds = %31
  store i32 0, ptr %9, align 4
  br label %39

39:                                               ; preds = %38, %37
  call void @llvm.lifetime.end.p0(i64 8, ptr %10) #3
  %40 = load i32, ptr %9, align 4
  switch i32 %40, label %45 [
    i32 0, label %41
  ]

41:                                               ; preds = %39
  br label %42

42:                                               ; preds = %41
  %43 = load ptr, ptr %7, align 8, !tbaa !12
  %44 = getelementptr inbounds nuw ptr, ptr %43, i32 1
  store ptr %44, ptr %7, align 8, !tbaa !12
  br label %26

45:                                               ; preds = %39, %30
  call void @llvm.lifetime.end.p0(i64 8, ptr %8) #3
  call void @llvm.lifetime.end.p0(i64 8, ptr %7) #3
  call void @llvm.lifetime.end.p0(i64 8, ptr %6) #3
  %46 = load i32, ptr %9, align 4
  switch i32 %46, label %51 [
    i32 2, label %47
    i32 1, label %49
  ]

47:                                               ; preds = %45
  store i1 true, ptr %3, align 1
  br label %49

48:                                               ; preds = %15
  store i1 false, ptr %3, align 1
  br label %49

49:                                               ; preds = %48, %47, %45, %14
  %50 = load i1, ptr %3, align 1
  ret i1 %50

51:                                               ; preds = %45
  unreachable
}