; Function Attrs: mustprogress uwtable
define hidden noundef zeroext i1 @_Z9is_clauseR11ast_managerP4expr(ptr noundef nonnull align 8 dereferenceable(976) %0, ptr noundef %1) local_unnamed_addr #3 {
  %3 = tail call noundef zeroext i1 @_Z10is_literalR11ast_managerP4expr(ptr noundef nonnull align 8 dereferenceable(976) %0, ptr noundef %1)
  br i1 %3, label %_ZNK11ast_manager5is_orEPK4expr.exit.thread, label %4

4:                                                ; preds = %2
  %5 = getelementptr inbounds nuw i8, ptr %1, i64 4
  %6 = load i32, ptr %5, align 4
  %7 = and i32 %6, 65535
  %8 = icmp eq i32 %7, 0
  br i1 %8, label %9, label %_ZNK11ast_manager5is_orEPK4expr.exit.thread

9:                                                ; preds = %4
  %10 = getelementptr inbounds nuw i8, ptr %1, i64 16
  %11 = load ptr, ptr %10, align 8, !tbaa !52
  %12 = getelementptr inbounds nuw i8, ptr %11, i64 24
  %13 = load ptr, ptr %12, align 8, !tbaa !53
  %.not.i.i.i.i = icmp eq ptr %13, null
  br i1 %.not.i.i.i.i, label %_ZNK11ast_manager5is_orEPK4expr.exit.thread, label %_ZNK11ast_manager5is_orEPK4expr.exit

_ZNK11ast_manager5is_orEPK4expr.exit:             ; preds = %9
  %14 = load i32, ptr %13, align 8, !tbaa !56
  %15 = icmp eq i32 %14, 0
  %16 = getelementptr inbounds nuw i8, ptr %13, i64 4
  %17 = load i32, ptr %16, align 4
  %18 = icmp eq i32 %17, 6
  %19 = select i1 %15, i1 %18, i1 false
  br i1 %19, label %20, label %_ZNK11ast_manager5is_orEPK4expr.exit.thread

20:                                               ; preds = %_ZNK11ast_manager5is_orEPK4expr.exit
  %21 = getelementptr inbounds nuw i8, ptr %1, i64 24
  %22 = load i32, ptr %21, align 8, !tbaa !19
  %23 = zext i32 %22 to i64
  %.idx = shl nuw nsw i64 %23, 3
  %24 = getelementptr inbounds nuw i8, ptr %1, i64 %.idx
  %.ptr23 = getelementptr inbounds nuw i8, ptr %24, i64 32
  %.not18 = icmp eq i32 %22, 0
  br i1 %.not18, label %_ZNK11ast_manager5is_orEPK4expr.exit.thread, label %.lr.ph.preheader

.lr.ph.preheader:                                 ; preds = %20
  %.ptr = getelementptr inbounds nuw i8, ptr %1, i64 32
  br label %.lr.ph

.lr.ph:                                           ; preds = %.lr.ph, %.lr.ph.preheader
  %.01719 = phi ptr [ %.ptr, %.lr.ph.preheader ], [ %27, %.lr.ph ]
  %25 = load ptr, ptr %.01719, align 8, !tbaa !3
  %26 = tail call noundef zeroext i1 @_Z10is_literalR11ast_managerP4expr(ptr noundef nonnull align 8 dereferenceable(976) %0, ptr noundef %25)
  %27 = getelementptr inbounds nuw i8, ptr %.01719, i64 8
  %.not = icmp ne ptr %27, %.ptr23
  %or.cond.not = select i1 %26, i1 %.not, i1 false
  br i1 %or.cond.not, label %.lr.ph, label %_ZNK11ast_manager5is_orEPK4expr.exit.thread

_ZNK11ast_manager5is_orEPK4expr.exit.thread:      ; preds = %.lr.ph, %20, %9, %4, %_ZNK11ast_manager5is_orEPK4expr.exit, %2
  %.0 = phi i1 [ true, %2 ], [ false, %_ZNK11ast_manager5is_orEPK4expr.exit ], [ false, %4 ], [ false, %9 ], [ true, %20 ], [ %26, %.lr.ph ]
  ret i1 %.0
}